ARM GAS  /tmp/ccUVM9CF.s 			page 1


   1              		.cpu cortex-m4
   2              		.eabi_attribute 27, 1
   3              		.eabi_attribute 28, 1
   4              		.eabi_attribute 20, 1
   5              		.eabi_attribute 21, 1
   6              		.eabi_attribute 23, 3
   7              		.eabi_attribute 24, 1
   8              		.eabi_attribute 25, 1
   9              		.eabi_attribute 26, 1
  10              		.eabi_attribute 30, 1
  11              		.eabi_attribute 34, 1
  12              		.eabi_attribute 18, 4
  13              		.file	"k_port_cm3_4_7.c"
  14              		.text
  15              	.Ltext0:
  16              		.cfi_sections	.debug_frame
  17              		.section	.text.port_create_stack_frame,"ax",%progbits
  18              		.align	1
  19              		.global	port_create_stack_frame
  20              		.syntax unified
  21              		.thumb
  22              		.thumb_func
  23              		.fpu fpv4-sp-d16
  25              	port_create_stack_frame:
  26              	.LFB20:
  27              		.file 1 "../../arch/arm_cm3_4_7/k_port_cm3_4_7.c"
   1:../../arch/arm_cm3_4_7/k_port_cm3_4_7.c **** /**
   2:../../arch/arm_cm3_4_7/k_port_cm3_4_7.c ****  * 							ULIPE RTOS PICO
   3:../../arch/arm_cm3_4_7/k_port_cm3_4_7.c ****  *
   4:../../arch/arm_cm3_4_7/k_port_cm3_4_7.c ****  *  @file k_port_cm3_4_7.c
   5:../../arch/arm_cm3_4_7/k_port_cm3_4_7.c ****  *
   6:../../arch/arm_cm3_4_7/k_port_cm3_4_7.c ****  *  @brief specific cortex M3+ system control block and timer file
   7:../../arch/arm_cm3_4_7/k_port_cm3_4_7.c ****  *
   8:../../arch/arm_cm3_4_7/k_port_cm3_4_7.c ****  *
   9:../../arch/arm_cm3_4_7/k_port_cm3_4_7.c ****  */
  10:../../arch/arm_cm3_4_7/k_port_cm3_4_7.c **** 
  11:../../arch/arm_cm3_4_7/k_port_cm3_4_7.c **** #include "ulipe_rtos_pico.h"
  12:../../arch/arm_cm3_4_7/k_port_cm3_4_7.c **** #include "include/arch/k_port_m3_4_7_defs.h"
  13:../../arch/arm_cm3_4_7/k_port_cm3_4_7.c **** 
  14:../../arch/arm_cm3_4_7/k_port_cm3_4_7.c **** #if(ARCH_TYPE_ARM_CM3_4_7 > 0)
  15:../../arch/arm_cm3_4_7/k_port_cm3_4_7.c **** 
  16:../../arch/arm_cm3_4_7/k_port_cm3_4_7.c **** 
  17:../../arch/arm_cm3_4_7/k_port_cm3_4_7.c **** archtype_t *port_create_stack_frame(archtype_t *stack, thread_t thr_func, void *cookie)
  18:../../arch/arm_cm3_4_7/k_port_cm3_4_7.c **** {
  28              		.loc 1 18 0
  29              		.cfi_startproc
  30              		@ args = 0, pretend = 0, frame = 0
  31              		@ frame_needed = 0, uses_anonymous_args = 0
  32              		@ link register save eliminated.
  33              	.LVL0:
  19:../../arch/arm_cm3_4_7/k_port_cm3_4_7.c **** 	 arm_cm3_xcpt_contents_t *ptr = ((arm_cm3_xcpt_contents_t *)stack) - 1;
  20:../../arch/arm_cm3_4_7/k_port_cm3_4_7.c **** 
  21:../../arch/arm_cm3_4_7/k_port_cm3_4_7.c **** 	ptr->lr = 0xFFFFFFFD;				//Adds exec return on link reg
  34              		.loc 1 21 0
  35 0000 6FF00203 		mvn	r3, #2
  36 0004 40F80C3C 		str	r3, [r0, #-12]
  22:../../arch/arm_cm3_4_7/k_port_cm3_4_7.c **** 	ptr->pc = (uint32_t)thr_func;		//task function at pc
ARM GAS  /tmp/ccUVM9CF.s 			page 2


  37              		.loc 1 22 0
  38 0008 40F8081C 		str	r1, [r0, #-8]
  23:../../arch/arm_cm3_4_7/k_port_cm3_4_7.c **** 	ptr->xpsr = 0x01000000;				//xPsr default value with interrupts enabled
  39              		.loc 1 23 0
  40 000c 4FF08073 		mov	r3, #16777216
  41 0010 40F8043C 		str	r3, [r0, #-4]
  24:../../arch/arm_cm3_4_7/k_port_cm3_4_7.c **** 	ptr->r0  = (uint32_t)cookie;		//Task arguments are passed thru R0
  42              		.loc 1 24 0
  43 0014 40F8202C 		str	r2, [r0, #-32]
  25:../../arch/arm_cm3_4_7/k_port_cm3_4_7.c **** 
  26:../../arch/arm_cm3_4_7/k_port_cm3_4_7.c **** 	/*Fill some known values at stack:*/
  27:../../arch/arm_cm3_4_7/k_port_cm3_4_7.c **** 	ptr->r1 = 0x11111111;
  44              		.loc 1 27 0
  45 0018 4FF01133 		mov	r3, #286331153
  46 001c 40F81C3C 		str	r3, [r0, #-28]
  28:../../arch/arm_cm3_4_7/k_port_cm3_4_7.c **** 	ptr->r2 = 0x22222222;
  47              		.loc 1 28 0
  48 0020 4FF02233 		mov	r3, #572662306
  49 0024 40F8183C 		str	r3, [r0, #-24]
  29:../../arch/arm_cm3_4_7/k_port_cm3_4_7.c **** 	ptr->r3 = 0x33333333;
  50              		.loc 1 29 0
  51 0028 4FF03333 		mov	r3, #858993459
  52 002c 40F8143C 		str	r3, [r0, #-20]
  30:../../arch/arm_cm3_4_7/k_port_cm3_4_7.c **** 	ptr->r4 = 0x44444444;
  53              		.loc 1 30 0
  54 0030 4FF04433 		mov	r3, #1145324612
  55 0034 40F8403C 		str	r3, [r0, #-64]
  31:../../arch/arm_cm3_4_7/k_port_cm3_4_7.c **** 	ptr->r5 = 0x55555555;
  56              		.loc 1 31 0
  57 0038 4FF05533 		mov	r3, #1431655765
  58 003c 40F83C3C 		str	r3, [r0, #-60]
  32:../../arch/arm_cm3_4_7/k_port_cm3_4_7.c **** 	ptr->r6 = 0x66666666;
  59              		.loc 1 32 0
  60 0040 4FF06633 		mov	r3, #1717986918
  61 0044 40F8383C 		str	r3, [r0, #-56]
  33:../../arch/arm_cm3_4_7/k_port_cm3_4_7.c **** 	ptr->r7 = 0x77777777;
  62              		.loc 1 33 0
  63 0048 4FF07733 		mov	r3, #2004318071
  64 004c 40F8343C 		str	r3, [r0, #-52]
  34:../../arch/arm_cm3_4_7/k_port_cm3_4_7.c **** 	ptr->r8 = 0x88888888;
  65              		.loc 1 34 0
  66 0050 4FF08833 		mov	r3, #-2004318072
  67 0054 40F8303C 		str	r3, [r0, #-48]
  35:../../arch/arm_cm3_4_7/k_port_cm3_4_7.c **** 	ptr->r9 = 0x99999999;
  68              		.loc 1 35 0
  69 0058 4FF09933 		mov	r3, #-1717986919
  70 005c 40F82C3C 		str	r3, [r0, #-44]
  36:../../arch/arm_cm3_4_7/k_port_cm3_4_7.c **** 	ptr->r10= 0xAAAAAAAA;
  71              		.loc 1 36 0
  72 0060 4FF0AA33 		mov	r3, #-1431655766
  73 0064 40F8283C 		str	r3, [r0, #-40]
  37:../../arch/arm_cm3_4_7/k_port_cm3_4_7.c **** 	ptr->r11= 0xBBBBBBBB;
  74              		.loc 1 37 0
  75 0068 4FF0BB33 		mov	r3, #-1145324613
  76 006c 40F8243C 		str	r3, [r0, #-36]
  38:../../arch/arm_cm3_4_7/k_port_cm3_4_7.c **** 	ptr->r12 =0xCCCCCCCC;
  77              		.loc 1 38 0
ARM GAS  /tmp/ccUVM9CF.s 			page 3


  78 0070 4FF0CC33 		mov	r3, #-858993460
  79 0074 40F8103C 		str	r3, [r0, #-16]
  39:../../arch/arm_cm3_4_7/k_port_cm3_4_7.c **** 
  40:../../arch/arm_cm3_4_7/k_port_cm3_4_7.c **** 	return((archtype_t *)ptr);
  41:../../arch/arm_cm3_4_7/k_port_cm3_4_7.c **** }
  80              		.loc 1 41 0
  81 0078 4038     		subs	r0, r0, #64
  82              	.LVL1:
  83 007a 7047     		bx	lr
  84              		.cfi_endproc
  85              	.LFE20:
  87              		.section	.text.port_swap_req,"ax",%progbits
  88              		.align	1
  89              		.global	port_swap_req
  90              		.syntax unified
  91              		.thumb
  92              		.thumb_func
  93              		.fpu fpv4-sp-d16
  95              	port_swap_req:
  96              	.LFB21:
  42:../../arch/arm_cm3_4_7/k_port_cm3_4_7.c **** 
  43:../../arch/arm_cm3_4_7/k_port_cm3_4_7.c **** void port_swap_req(void)
  44:../../arch/arm_cm3_4_7/k_port_cm3_4_7.c **** {
  97              		.loc 1 44 0
  98              		.cfi_startproc
  99              		@ args = 0, pretend = 0, frame = 0
 100              		@ frame_needed = 0, uses_anonymous_args = 0
 101              		@ link register save eliminated.
  45:../../arch/arm_cm3_4_7/k_port_cm3_4_7.c **** 	/* triggers a sofware interrupt */
  46:../../arch/arm_cm3_4_7/k_port_cm3_4_7.c **** 	SCB->ICSR |= (1 << 28);
 102              		.loc 1 46 0
 103 0000 024A     		ldr	r2, .L3
 104 0002 5368     		ldr	r3, [r2, #4]
 105 0004 43F08053 		orr	r3, r3, #268435456
 106 0008 5360     		str	r3, [r2, #4]
 107 000a 7047     		bx	lr
 108              	.L4:
 109              		.align	2
 110              	.L3:
 111 000c 00ED00E0 		.word	-536810240
 112              		.cfi_endproc
 113              	.LFE21:
 115              		.section	.text.port_init_machine,"ax",%progbits
 116              		.align	1
 117              		.global	port_init_machine
 118              		.syntax unified
 119              		.thumb
 120              		.thumb_func
 121              		.fpu fpv4-sp-d16
 123              	port_init_machine:
 124              	.LFB22:
  47:../../arch/arm_cm3_4_7/k_port_cm3_4_7.c **** }
  48:../../arch/arm_cm3_4_7/k_port_cm3_4_7.c **** 
  49:../../arch/arm_cm3_4_7/k_port_cm3_4_7.c **** void port_init_machine(void)
  50:../../arch/arm_cm3_4_7/k_port_cm3_4_7.c **** {
 125              		.loc 1 50 0
 126              		.cfi_startproc
ARM GAS  /tmp/ccUVM9CF.s 			page 4


 127              		@ args = 0, pretend = 0, frame = 0
 128              		@ frame_needed = 0, uses_anonymous_args = 0
 129              		@ link register save eliminated.
  51:../../arch/arm_cm3_4_7/k_port_cm3_4_7.c **** 	/* sets the system interrupts on system control block */
  52:../../arch/arm_cm3_4_7/k_port_cm3_4_7.c **** 	SCB->CCR = 0x200;
 130              		.loc 1 52 0
 131 0000 0A4B     		ldr	r3, .L6
 132 0002 4FF40072 		mov	r2, #512
 133 0006 5A61     		str	r2, [r3, #20]
  53:../../arch/arm_cm3_4_7/k_port_cm3_4_7.c **** 	SCB->SHP[10] = 0xFE;
 134              		.loc 1 53 0
 135 0008 FE22     		movs	r2, #254
 136 000a 83F82220 		strb	r2, [r3, #34]
  54:../../arch/arm_cm3_4_7/k_port_cm3_4_7.c **** 	SCB->SHP[11] = 0xFF;
 137              		.loc 1 54 0
 138 000e FF22     		movs	r2, #255
 139 0010 83F82320 		strb	r2, [r3, #35]
  55:../../arch/arm_cm3_4_7/k_port_cm3_4_7.c **** 	SCB->SHP[7]  = 0xFF;
 140              		.loc 1 55 0
 141 0014 DA77     		strb	r2, [r3, #31]
  56:../../arch/arm_cm3_4_7/k_port_cm3_4_7.c **** 
  57:../../arch/arm_cm3_4_7/k_port_cm3_4_7.c **** #if (K_ENABLE_TICKER > 0)
  58:../../arch/arm_cm3_4_7/k_port_cm3_4_7.c **** 	#if !defined(K_MACHINE_CLOCK) || !defined(K_TICKER_RATE)
  59:../../arch/arm_cm3_4_7/k_port_cm3_4_7.c **** 	#error "The SoC clock and ticker rate needs to be defined to use tick feature!"
  60:../../arch/arm_cm3_4_7/k_port_cm3_4_7.c **** 	#endif
  61:../../arch/arm_cm3_4_7/k_port_cm3_4_7.c **** 
  62:../../arch/arm_cm3_4_7/k_port_cm3_4_7.c **** 	SysTick->CTRL = 0;
 142              		.loc 1 62 0
 143 0016 A3F54F63 		sub	r3, r3, #3312
 144 001a 0022     		movs	r2, #0
 145 001c 1A60     		str	r2, [r3]
  63:../../arch/arm_cm3_4_7/k_port_cm3_4_7.c **** 	SysTick->LOAD = (K_MACHINE_CLOCK / K_TICKER_RATE);
 146              		.loc 1 63 0
 147 001e 42F6E062 		movw	r2, #12000
 148 0022 5A60     		str	r2, [r3, #4]
  64:../../arch/arm_cm3_4_7/k_port_cm3_4_7.c **** 	SysTick->CTRL = 0x07;
 149              		.loc 1 64 0
 150 0024 0722     		movs	r2, #7
 151 0026 1A60     		str	r2, [r3]
 152 0028 7047     		bx	lr
 153              	.L7:
 154 002a 00BF     		.align	2
 155              	.L6:
 156 002c 00ED00E0 		.word	-536810240
 157              		.cfi_endproc
 158              	.LFE22:
 160              		.section	.text.timer_tick_handler,"ax",%progbits
 161              		.align	1
 162              		.global	timer_tick_handler
 163              		.syntax unified
 164              		.thumb
 165              		.thumb_func
 166              		.fpu fpv4-sp-d16
 168              	timer_tick_handler:
 169              	.LFB23:
  65:../../arch/arm_cm3_4_7/k_port_cm3_4_7.c **** #endif
  66:../../arch/arm_cm3_4_7/k_port_cm3_4_7.c **** }
ARM GAS  /tmp/ccUVM9CF.s 			page 5


  67:../../arch/arm_cm3_4_7/k_port_cm3_4_7.c **** 
  68:../../arch/arm_cm3_4_7/k_port_cm3_4_7.c **** #if(K_ENABLE_TICKLESS_IDLE > 0)
  69:../../arch/arm_cm3_4_7/k_port_cm3_4_7.c **** void port_start_ticker(uint32_t reload_val)
  70:../../arch/arm_cm3_4_7/k_port_cm3_4_7.c **** {
  71:../../arch/arm_cm3_4_7/k_port_cm3_4_7.c **** 
  72:../../arch/arm_cm3_4_7/k_port_cm3_4_7.c **** }
  73:../../arch/arm_cm3_4_7/k_port_cm3_4_7.c **** 
  74:../../arch/arm_cm3_4_7/k_port_cm3_4_7.c **** 
  75:../../arch/arm_cm3_4_7/k_port_cm3_4_7.c **** uint32_t port_halt_ticker(void)
  76:../../arch/arm_cm3_4_7/k_port_cm3_4_7.c **** {
  77:../../arch/arm_cm3_4_7/k_port_cm3_4_7.c **** 
  78:../../arch/arm_cm3_4_7/k_port_cm3_4_7.c **** }
  79:../../arch/arm_cm3_4_7/k_port_cm3_4_7.c **** 
  80:../../arch/arm_cm3_4_7/k_port_cm3_4_7.c **** #endif
  81:../../arch/arm_cm3_4_7/k_port_cm3_4_7.c **** 
  82:../../arch/arm_cm3_4_7/k_port_cm3_4_7.c **** 
  83:../../arch/arm_cm3_4_7/k_port_cm3_4_7.c **** 
  84:../../arch/arm_cm3_4_7/k_port_cm3_4_7.c **** #if (K_ENABLE_TICKER > 0)
  85:../../arch/arm_cm3_4_7/k_port_cm3_4_7.c **** 
  86:../../arch/arm_cm3_4_7/k_port_cm3_4_7.c **** void timer_tick_handler(void)
  87:../../arch/arm_cm3_4_7/k_port_cm3_4_7.c **** {
 170              		.loc 1 87 0
 171              		.cfi_startproc
 172              		@ args = 0, pretend = 0, frame = 0
 173              		@ frame_needed = 0, uses_anonymous_args = 0
 174 0000 08B5     		push	{r3, lr}
 175              	.LCFI0:
 176              		.cfi_def_cfa_offset 8
 177              		.cfi_offset 3, -8
 178              		.cfi_offset 14, -4
  88:../../arch/arm_cm3_4_7/k_port_cm3_4_7.c **** 	extern tcb_t timer_tcb;
  89:../../arch/arm_cm3_4_7/k_port_cm3_4_7.c **** 	thread_set_signals(&timer_tcb, K_TIMER_TICK);	
 179              		.loc 1 89 0
 180 0002 0821     		movs	r1, #8
 181 0004 0148     		ldr	r0, .L10
 182 0006 FFF7FEFF 		bl	thread_set_signals
 183              	.LVL2:
 184 000a 08BD     		pop	{r3, pc}
 185              	.L11:
 186              		.align	2
 187              	.L10:
 188 000c 00000000 		.word	timer_tcb
 189              		.cfi_endproc
 190              	.LFE23:
 192              		.section	.text.SysTick_Handler,"ax",%progbits
 193              		.align	1
 194              		.global	SysTick_Handler
 195              		.syntax unified
 196              		.thumb
 197              		.thumb_func
 198              		.fpu fpv4-sp-d16
 200              	SysTick_Handler:
 201              	.LFB24:
  90:../../arch/arm_cm3_4_7/k_port_cm3_4_7.c **** }
  91:../../arch/arm_cm3_4_7/k_port_cm3_4_7.c **** 
  92:../../arch/arm_cm3_4_7/k_port_cm3_4_7.c **** 
  93:../../arch/arm_cm3_4_7/k_port_cm3_4_7.c **** void SysTick_Handler(void)
ARM GAS  /tmp/ccUVM9CF.s 			page 6


  94:../../arch/arm_cm3_4_7/k_port_cm3_4_7.c **** {
 202              		.loc 1 94 0
 203              		.cfi_startproc
 204              		@ args = 0, pretend = 0, frame = 0
 205              		@ frame_needed = 0, uses_anonymous_args = 0
 206 0000 08B5     		push	{r3, lr}
 207              	.LCFI1:
 208              		.cfi_def_cfa_offset 8
 209              		.cfi_offset 3, -8
 210              		.cfi_offset 14, -4
  95:../../arch/arm_cm3_4_7/k_port_cm3_4_7.c **** 	kernel_irq_in();	
 211              		.loc 1 95 0
 212 0002 FFF7FEFF 		bl	kernel_irq_in
 213              	.LVL3:
  96:../../arch/arm_cm3_4_7/k_port_cm3_4_7.c **** 	timer_tick_handler();
 214              		.loc 1 96 0
 215 0006 FFF7FEFF 		bl	timer_tick_handler
 216              	.LVL4:
  97:../../arch/arm_cm3_4_7/k_port_cm3_4_7.c **** 	kernel_irq_out();
 217              		.loc 1 97 0
 218 000a FFF7FEFF 		bl	kernel_irq_out
 219              	.LVL5:
 220 000e 08BD     		pop	{r3, pc}
 221              		.cfi_endproc
 222              	.LFE24:
 224              		.section	.text.port_start_timer,"ax",%progbits
 225              		.align	1
 226              		.global	port_start_timer
 227              		.syntax unified
 228              		.thumb
 229              		.thumb_func
 230              		.fpu fpv4-sp-d16
 232              	port_start_timer:
 233              	.LFB25:
  98:../../arch/arm_cm3_4_7/k_port_cm3_4_7.c **** }
  99:../../arch/arm_cm3_4_7/k_port_cm3_4_7.c **** #endif
 100:../../arch/arm_cm3_4_7/k_port_cm3_4_7.c **** 
 101:../../arch/arm_cm3_4_7/k_port_cm3_4_7.c **** 
 102:../../arch/arm_cm3_4_7/k_port_cm3_4_7.c **** #if(K_ENABLE_TIMERS > 0)
 103:../../arch/arm_cm3_4_7/k_port_cm3_4_7.c **** 
 104:../../arch/arm_cm3_4_7/k_port_cm3_4_7.c **** void port_start_timer(archtype_t reload_val)
 105:../../arch/arm_cm3_4_7/k_port_cm3_4_7.c **** {
 234              		.loc 1 105 0
 235              		.cfi_startproc
 236              		@ args = 0, pretend = 0, frame = 0
 237              		@ frame_needed = 0, uses_anonymous_args = 0
 238              		@ link register save eliminated.
 239              	.LVL6:
 240 0000 7047     		bx	lr
 241              		.cfi_endproc
 242              	.LFE25:
 244              		.section	.text.port_timer_load_append,"ax",%progbits
 245              		.align	1
 246              		.global	port_timer_load_append
 247              		.syntax unified
 248              		.thumb
 249              		.thumb_func
ARM GAS  /tmp/ccUVM9CF.s 			page 7


 250              		.fpu fpv4-sp-d16
 252              	port_timer_load_append:
 253              	.LFB26:
 106:../../arch/arm_cm3_4_7/k_port_cm3_4_7.c **** }
 107:../../arch/arm_cm3_4_7/k_port_cm3_4_7.c **** 
 108:../../arch/arm_cm3_4_7/k_port_cm3_4_7.c **** void port_timer_load_append(archtype_t append_val)
 109:../../arch/arm_cm3_4_7/k_port_cm3_4_7.c **** {
 254              		.loc 1 109 0
 255              		.cfi_startproc
 256              		@ args = 0, pretend = 0, frame = 0
 257              		@ frame_needed = 0, uses_anonymous_args = 0
 258              		@ link register save eliminated.
 259              	.LVL7:
 260 0000 7047     		bx	lr
 261              		.cfi_endproc
 262              	.LFE26:
 264              		.section	.text.port_timer_halt,"ax",%progbits
 265              		.align	1
 266              		.global	port_timer_halt
 267              		.syntax unified
 268              		.thumb
 269              		.thumb_func
 270              		.fpu fpv4-sp-d16
 272              	port_timer_halt:
 273              	.LFB27:
 110:../../arch/arm_cm3_4_7/k_port_cm3_4_7.c **** }
 111:../../arch/arm_cm3_4_7/k_port_cm3_4_7.c **** 
 112:../../arch/arm_cm3_4_7/k_port_cm3_4_7.c **** extern uint32_t port_timer_halt(void)
 113:../../arch/arm_cm3_4_7/k_port_cm3_4_7.c **** {
 274              		.loc 1 113 0
 275              		.cfi_startproc
 276              		@ args = 0, pretend = 0, frame = 0
 277              		@ frame_needed = 0, uses_anonymous_args = 0
 278              		@ link register save eliminated.
 114:../../arch/arm_cm3_4_7/k_port_cm3_4_7.c **** 	return 0;
 115:../../arch/arm_cm3_4_7/k_port_cm3_4_7.c **** }
 279              		.loc 1 115 0
 280 0000 0020     		movs	r0, #0
 281 0002 7047     		bx	lr
 282              		.cfi_endproc
 283              	.LFE27:
 285              		.section	.text.port_timer_resume,"ax",%progbits
 286              		.align	1
 287              		.global	port_timer_resume
 288              		.syntax unified
 289              		.thumb
 290              		.thumb_func
 291              		.fpu fpv4-sp-d16
 293              	port_timer_resume:
 294              	.LFB28:
 116:../../arch/arm_cm3_4_7/k_port_cm3_4_7.c **** 
 117:../../arch/arm_cm3_4_7/k_port_cm3_4_7.c **** extern void port_timer_resume(void)
 118:../../arch/arm_cm3_4_7/k_port_cm3_4_7.c **** {
 295              		.loc 1 118 0
 296              		.cfi_startproc
 297              		@ args = 0, pretend = 0, frame = 0
 298              		@ frame_needed = 0, uses_anonymous_args = 0
ARM GAS  /tmp/ccUVM9CF.s 			page 8


 299              		@ link register save eliminated.
 300 0000 7047     		bx	lr
 301              		.cfi_endproc
 302              	.LFE28:
 304              		.section	.text.timer_match_handler,"ax",%progbits
 305              		.align	1
 306              		.global	timer_match_handler
 307              		.syntax unified
 308              		.thumb
 309              		.thumb_func
 310              		.fpu fpv4-sp-d16
 312              	timer_match_handler:
 313              	.LFB29:
 119:../../arch/arm_cm3_4_7/k_port_cm3_4_7.c **** }
 120:../../arch/arm_cm3_4_7/k_port_cm3_4_7.c **** 
 121:../../arch/arm_cm3_4_7/k_port_cm3_4_7.c **** 
 122:../../arch/arm_cm3_4_7/k_port_cm3_4_7.c **** extern void timer_match_handler(void)
 123:../../arch/arm_cm3_4_7/k_port_cm3_4_7.c **** {
 314              		.loc 1 123 0
 315              		.cfi_startproc
 316              		@ args = 0, pretend = 0, frame = 0
 317              		@ frame_needed = 0, uses_anonymous_args = 0
 318              		.loc 1 123 0
 319 0000 08B5     		push	{r3, lr}
 320              	.LCFI2:
 321              		.cfi_def_cfa_offset 8
 322              		.cfi_offset 3, -8
 323              		.cfi_offset 14, -4
 124:../../arch/arm_cm3_4_7/k_port_cm3_4_7.c **** 	extern tcb_t timer_tcb;
 125:../../arch/arm_cm3_4_7/k_port_cm3_4_7.c **** 	kernel_irq_in();
 324              		.loc 1 125 0
 325 0002 FFF7FEFF 		bl	kernel_irq_in
 326              	.LVL8:
 126:../../arch/arm_cm3_4_7/k_port_cm3_4_7.c **** 	/* request timeline handling */
 127:../../arch/arm_cm3_4_7/k_port_cm3_4_7.c **** 	thread_set_signals(&timer_tcb, K_TIMER_DISPATCH);
 327              		.loc 1 127 0
 328 0006 0221     		movs	r1, #2
 329 0008 0248     		ldr	r0, .L20
 330 000a FFF7FEFF 		bl	thread_set_signals
 331              	.LVL9:
 128:../../arch/arm_cm3_4_7/k_port_cm3_4_7.c **** 	kernel_irq_out();
 332              		.loc 1 128 0
 333 000e FFF7FEFF 		bl	kernel_irq_out
 334              	.LVL10:
 335 0012 08BD     		pop	{r3, pc}
 336              	.L21:
 337              		.align	2
 338              	.L20:
 339 0014 00000000 		.word	timer_tcb
 340              		.cfi_endproc
 341              	.LFE29:
 343              		.section	.text.timer_ovf_handler,"ax",%progbits
 344              		.align	1
 345              		.global	timer_ovf_handler
 346              		.syntax unified
 347              		.thumb
 348              		.thumb_func
ARM GAS  /tmp/ccUVM9CF.s 			page 9


 349              		.fpu fpv4-sp-d16
 351              	timer_ovf_handler:
 352              	.LFB30:
 129:../../arch/arm_cm3_4_7/k_port_cm3_4_7.c **** }
 130:../../arch/arm_cm3_4_7/k_port_cm3_4_7.c **** 
 131:../../arch/arm_cm3_4_7/k_port_cm3_4_7.c **** extern void timer_ovf_handler(void)
 132:../../arch/arm_cm3_4_7/k_port_cm3_4_7.c **** {
 353              		.loc 1 132 0
 354              		.cfi_startproc
 355              		@ args = 0, pretend = 0, frame = 0
 356              		@ frame_needed = 0, uses_anonymous_args = 0
 357 0000 08B5     		push	{r3, lr}
 358              	.LCFI3:
 359              		.cfi_def_cfa_offset 8
 360              		.cfi_offset 3, -8
 361              		.cfi_offset 14, -4
 133:../../arch/arm_cm3_4_7/k_port_cm3_4_7.c **** 	kernel_irq_in();
 362              		.loc 1 133 0
 363 0002 FFF7FEFF 		bl	kernel_irq_in
 364              	.LVL11:
 134:../../arch/arm_cm3_4_7/k_port_cm3_4_7.c **** 	kernel_irq_out();
 365              		.loc 1 134 0
 366 0006 FFF7FEFF 		bl	kernel_irq_out
 367              	.LVL12:
 368 000a 08BD     		pop	{r3, pc}
 369              		.cfi_endproc
 370              	.LFE30:
 372              		.text
 373              	.Letext0:
 374              		.file 2 "/home/venturus/gcc-arm-none-eabi-6-2017-q2-update/arm-none-eabi/include/machine/_default_
 375              		.file 3 "/home/venturus/gcc-arm-none-eabi-6-2017-q2-update/arm-none-eabi/include/sys/_stdint.h"
 376              		.file 4 "/home/venturus/gcc-arm-none-eabi-6-2017-q2-update/arm-none-eabi/include/sys/lock.h"
 377              		.file 5 "/home/venturus/gcc-arm-none-eabi-6-2017-q2-update/arm-none-eabi/include/sys/_types.h"
 378              		.file 6 "/home/venturus/gcc-arm-none-eabi-6-2017-q2-update/lib/gcc/arm-none-eabi/6.3.1/include/std
 379              		.file 7 "/home/venturus/gcc-arm-none-eabi-6-2017-q2-update/arm-none-eabi/include/sys/reent.h"
 380              		.file 8 "../../../uLipeRtosPico/picokernel/inc/k_list.h"
 381              		.file 9 "../../../uLipeRtosPico/ulipe_rtos_pico.h"
 382              		.file 10 "../../../uLipeRtosPico/include/picokernel/k_thread.h"
 383              		.file 11 "../../../uLipeRtosPico/include/arch/k_port_m3_4_7_defs.h"
 384              		.file 12 "../../../uLipeRtosPico/include/picokernel/k_kernel.h"
ARM GAS  /tmp/ccUVM9CF.s 			page 10

