ARM GAS  /tmp/ccac02yE.s 			page 1


   1              		.cpu cortex-m4
   2              		.eabi_attribute 27, 1
   3              		.eabi_attribute 28, 1
   4              		.eabi_attribute 20, 1
   5              		.eabi_attribute 21, 1
   6              		.eabi_attribute 23, 3
   7              		.eabi_attribute 24, 1
   8              		.eabi_attribute 25, 1
   9              		.eabi_attribute 26, 1
  10              		.eabi_attribute 30, 1
  11              		.eabi_attribute 34, 1
  12              		.eabi_attribute 18, 4
  13              		.file	"main.c"
  14              		.text
  15              	.Ltext0:
  16              		.cfi_sections	.debug_frame
  17              		.section	.text.t4_task,"ax",%progbits
  18              		.align	1
  19              		.syntax unified
  20              		.thumb
  21              		.thumb_func
  22              		.fpu fpv4-sp-d16
  24              	t4_task:
  25              	.LFB147:
  26              		.file 1 "Src/main.c"
   1:Src/main.c    **** /**
   2:Src/main.c    ****   ******************************************************************************
   3:Src/main.c    ****   * File Name          : main.c
   4:Src/main.c    ****   * Description        : Main program body
   5:Src/main.c    ****   ******************************************************************************
   6:Src/main.c    ****   ** This notice applies to any and all portions of this file
   7:Src/main.c    ****   * that are not between comment pairs USER CODE BEGIN and
   8:Src/main.c    ****   * USER CODE END. Other portions of this file, whether 
   9:Src/main.c    ****   * inserted by the user or by software development tools
  10:Src/main.c    ****   * are owned by their respective copyright owners.
  11:Src/main.c    ****   *
  12:Src/main.c    ****   * COPYRIGHT(c) 2017 STMicroelectronics
  13:Src/main.c    ****   *
  14:Src/main.c    ****   * Redistribution and use in source and binary forms, with or without modification,
  15:Src/main.c    ****   * are permitted provided that the following conditions are met:
  16:Src/main.c    ****   *   1. Redistributions of source code must retain the above copyright notice,
  17:Src/main.c    ****   *      this list of conditions and the following disclaimer.
  18:Src/main.c    ****   *   2. Redistributions in binary form must reproduce the above copyright notice,
  19:Src/main.c    ****   *      this list of conditions and the following disclaimer in the documentation
  20:Src/main.c    ****   *      and/or other materials provided with the distribution.
  21:Src/main.c    ****   *   3. Neither the name of STMicroelectronics nor the names of its contributors
  22:Src/main.c    ****   *      may be used to endorse or promote products derived from this software
  23:Src/main.c    ****   *      without specific prior written permission.
  24:Src/main.c    ****   *
  25:Src/main.c    ****   * THIS SOFTWARE IS PROVIDED BY THE COPYRIGHT HOLDERS AND CONTRIBUTORS "AS IS"
  26:Src/main.c    ****   * AND ANY EXPRESS OR IMPLIED WARRANTIES, INCLUDING, BUT NOT LIMITED TO, THE
  27:Src/main.c    ****   * IMPLIED WARRANTIES OF MERCHANTABILITY AND FITNESS FOR A PARTICULAR PURPOSE ARE
  28:Src/main.c    ****   * DISCLAIMED. IN NO EVENT SHALL THE COPYRIGHT HOLDER OR CONTRIBUTORS BE LIABLE
  29:Src/main.c    ****   * FOR ANY DIRECT, INDIRECT, INCIDENTAL, SPECIAL, EXEMPLARY, OR CONSEQUENTIAL
  30:Src/main.c    ****   * DAMAGES (INCLUDING, BUT NOT LIMITED TO, PROCUREMENT OF SUBSTITUTE GOODS OR
  31:Src/main.c    ****   * SERVICES; LOSS OF USE, DATA, OR PROFITS; OR BUSINESS INTERRUPTION) HOWEVER
  32:Src/main.c    ****   * CAUSED AND ON ANY THEORY OF LIABILITY, WHETHER IN CONTRACT, STRICT LIABILITY,
ARM GAS  /tmp/ccac02yE.s 			page 2


  33:Src/main.c    ****   * OR TORT (INCLUDING NEGLIGENCE OR OTHERWISE) ARISING IN ANY WAY OUT OF THE USE
  34:Src/main.c    ****   * OF THIS SOFTWARE, EVEN IF ADVISED OF THE POSSIBILITY OF SUCH DAMAGE.
  35:Src/main.c    ****   *
  36:Src/main.c    ****   ******************************************************************************
  37:Src/main.c    ****   */
  38:Src/main.c    **** /* Includes ------------------------------------------------------------------*/
  39:Src/main.c    **** #include "main.h"
  40:Src/main.c    **** #include "stm32f3xx_hal.h"
  41:Src/main.c    **** #include "usart.h"
  42:Src/main.c    **** #include "gpio.h"
  43:Src/main.c    **** #include "ulipe_rtos_pico.h"
  44:Src/main.c    **** 
  45:Src/main.c    **** /* thread declara tion ( tcb name, stack size, priority) */
  46:Src/main.c    **** THREAD_CONTROL_BLOCK_DECLARE(t1, 64, 4);
  47:Src/main.c    **** THREAD_CONTROL_BLOCK_DECLARE(t2, 64, 4);
  48:Src/main.c    **** THREAD_CONTROL_BLOCK_DECLARE(t3, 64, 4);
  49:Src/main.c    **** THREAD_CONTROL_BLOCK_DECLARE(t4, 64, 4);
  50:Src/main.c    **** 
  51:Src/main.c    **** 
  52:Src/main.c    **** /** a set of blinky threads the pins are the same used on leds of discovery board */
  53:Src/main.c    **** static void t1_task(void *arg)
  54:Src/main.c    **** {
  55:Src/main.c    **** 	uint32_t cntr = (uint32_t) arg;
  56:Src/main.c    **** 
  57:Src/main.c    **** 
  58:Src/main.c    **** 
  59:Src/main.c    **** 	for(;;) {
  60:Src/main.c    ****     HAL_GPIO_TogglePin(GPIOB, GPIO_PIN_8);
  61:Src/main.c    **** 		ticker_timer_wait(1000);
  62:Src/main.c    **** 	}
  63:Src/main.c    **** }
  64:Src/main.c    **** 
  65:Src/main.c    **** 
  66:Src/main.c    **** static void t2_task(void *arg)
  67:Src/main.c    **** {
  68:Src/main.c    **** 	uint32_t cntr = (uint32_t) arg;
  69:Src/main.c    **** 
  70:Src/main.c    **** 
  71:Src/main.c    **** 
  72:Src/main.c    **** 	for(;;) {
  73:Src/main.c    ****     HAL_GPIO_TogglePin(GPIOB, GPIO_PIN_7);
  74:Src/main.c    **** 		ticker_timer_wait(1000);
  75:Src/main.c    **** 	}
  76:Src/main.c    **** 
  77:Src/main.c    **** }
  78:Src/main.c    **** 
  79:Src/main.c    **** static void t3_task(void *arg)
  80:Src/main.c    **** {
  81:Src/main.c    **** 	uint32_t cntr = (uint32_t) arg;
  82:Src/main.c    **** 
  83:Src/main.c    **** 	for(;;) {
  84:Src/main.c    ****     HAL_GPIO_TogglePin(GPIOB, GPIO_PIN_6);
  85:Src/main.c    **** 		ticker_timer_wait(1000);
  86:Src/main.c    **** 	}
  87:Src/main.c    **** }
  88:Src/main.c    **** 
  89:Src/main.c    **** static char cbuffer[128] = {0};
ARM GAS  /tmp/ccac02yE.s 			page 3


  90:Src/main.c    **** 
  91:Src/main.c    **** 
  92:Src/main.c    **** static void t4_task(void *arg)
  93:Src/main.c    **** {
  27              		.loc 1 93 0
  28              		.cfi_startproc
  29              		@ args = 0, pretend = 0, frame = 0
  30              		@ frame_needed = 0, uses_anonymous_args = 0
  31              	.LVL0:
  32 0000 08B5     		push	{r3, lr}
  33              	.LCFI0:
  34              		.cfi_def_cfa_offset 8
  35              		.cfi_offset 3, -8
  36              		.cfi_offset 14, -4
  37              	.LVL1:
  38              	.L2:
  94:Src/main.c    **** 	uint32_t cntr = (uint32_t) arg;
  95:Src/main.c    **** 
  96:Src/main.c    **** 	for(;;) {
  97:Src/main.c    ****     HAL_GPIO_TogglePin(GPIOB, GPIO_PIN_9);
  39              		.loc 1 97 0 discriminator 1
  40 0002 4FF40071 		mov	r1, #512
  41 0006 0448     		ldr	r0, .L4
  42 0008 FFF7FEFF 		bl	HAL_GPIO_TogglePin
  43              	.LVL2:
  98:Src/main.c    **** 		ticker_timer_wait(1000);
  44              		.loc 1 98 0 discriminator 1
  45 000c 4FF47A70 		mov	r0, #1000
  46 0010 FFF7FEFF 		bl	ticker_timer_wait
  47              	.LVL3:
  48 0014 F5E7     		b	.L2
  49              	.L5:
  50 0016 00BF     		.align	2
  51              	.L4:
  52 0018 00040048 		.word	1207960576
  53              		.cfi_endproc
  54              	.LFE147:
  56              		.section	.text.t3_task,"ax",%progbits
  57              		.align	1
  58              		.syntax unified
  59              		.thumb
  60              		.thumb_func
  61              		.fpu fpv4-sp-d16
  63              	t3_task:
  64              	.LFB146:
  80:Src/main.c    **** 	uint32_t cntr = (uint32_t) arg;
  65              		.loc 1 80 0
  66              		.cfi_startproc
  67              		@ args = 0, pretend = 0, frame = 0
  68              		@ frame_needed = 0, uses_anonymous_args = 0
  69              	.LVL4:
  70 0000 08B5     		push	{r3, lr}
  71              	.LCFI1:
  72              		.cfi_def_cfa_offset 8
  73              		.cfi_offset 3, -8
  74              		.cfi_offset 14, -4
  75              	.LVL5:
ARM GAS  /tmp/ccac02yE.s 			page 4


  76              	.L7:
  84:Src/main.c    **** 		ticker_timer_wait(1000);
  77              		.loc 1 84 0 discriminator 1
  78 0002 4021     		movs	r1, #64
  79 0004 0348     		ldr	r0, .L9
  80 0006 FFF7FEFF 		bl	HAL_GPIO_TogglePin
  81              	.LVL6:
  85:Src/main.c    **** 	}
  82              		.loc 1 85 0 discriminator 1
  83 000a 4FF47A70 		mov	r0, #1000
  84 000e FFF7FEFF 		bl	ticker_timer_wait
  85              	.LVL7:
  86 0012 F6E7     		b	.L7
  87              	.L10:
  88              		.align	2
  89              	.L9:
  90 0014 00040048 		.word	1207960576
  91              		.cfi_endproc
  92              	.LFE146:
  94              		.section	.text.t2_task,"ax",%progbits
  95              		.align	1
  96              		.syntax unified
  97              		.thumb
  98              		.thumb_func
  99              		.fpu fpv4-sp-d16
 101              	t2_task:
 102              	.LFB145:
  67:Src/main.c    **** 	uint32_t cntr = (uint32_t) arg;
 103              		.loc 1 67 0
 104              		.cfi_startproc
 105              		@ args = 0, pretend = 0, frame = 0
 106              		@ frame_needed = 0, uses_anonymous_args = 0
 107              	.LVL8:
 108 0000 08B5     		push	{r3, lr}
 109              	.LCFI2:
 110              		.cfi_def_cfa_offset 8
 111              		.cfi_offset 3, -8
 112              		.cfi_offset 14, -4
 113              	.LVL9:
 114              	.L12:
  73:Src/main.c    **** 		ticker_timer_wait(1000);
 115              		.loc 1 73 0 discriminator 1
 116 0002 8021     		movs	r1, #128
 117 0004 0348     		ldr	r0, .L14
 118 0006 FFF7FEFF 		bl	HAL_GPIO_TogglePin
 119              	.LVL10:
  74:Src/main.c    **** 	}
 120              		.loc 1 74 0 discriminator 1
 121 000a 4FF47A70 		mov	r0, #1000
 122 000e FFF7FEFF 		bl	ticker_timer_wait
 123              	.LVL11:
 124 0012 F6E7     		b	.L12
 125              	.L15:
 126              		.align	2
 127              	.L14:
 128 0014 00040048 		.word	1207960576
 129              		.cfi_endproc
ARM GAS  /tmp/ccac02yE.s 			page 5


 130              	.LFE145:
 132              		.section	.text.t1_task,"ax",%progbits
 133              		.align	1
 134              		.syntax unified
 135              		.thumb
 136              		.thumb_func
 137              		.fpu fpv4-sp-d16
 139              	t1_task:
 140              	.LFB144:
  54:Src/main.c    **** 	uint32_t cntr = (uint32_t) arg;
 141              		.loc 1 54 0
 142              		.cfi_startproc
 143              		@ args = 0, pretend = 0, frame = 0
 144              		@ frame_needed = 0, uses_anonymous_args = 0
 145              	.LVL12:
 146 0000 08B5     		push	{r3, lr}
 147              	.LCFI3:
 148              		.cfi_def_cfa_offset 8
 149              		.cfi_offset 3, -8
 150              		.cfi_offset 14, -4
 151              	.LVL13:
 152              	.L17:
  60:Src/main.c    **** 		ticker_timer_wait(1000);
 153              		.loc 1 60 0 discriminator 1
 154 0002 4FF48071 		mov	r1, #256
 155 0006 0448     		ldr	r0, .L19
 156 0008 FFF7FEFF 		bl	HAL_GPIO_TogglePin
 157              	.LVL14:
  61:Src/main.c    **** 	}
 158              		.loc 1 61 0 discriminator 1
 159 000c 4FF47A70 		mov	r0, #1000
 160 0010 FFF7FEFF 		bl	ticker_timer_wait
 161              	.LVL15:
 162 0014 F5E7     		b	.L17
 163              	.L20:
 164 0016 00BF     		.align	2
 165              	.L19:
 166 0018 00040048 		.word	1207960576
 167              		.cfi_endproc
 168              	.LFE144:
 170              		.section	.text._Error_Handler,"ax",%progbits
 171              		.align	1
 172              		.global	_Error_Handler
 173              		.syntax unified
 174              		.thumb
 175              		.thumb_func
 176              		.fpu fpv4-sp-d16
 178              	_Error_Handler:
 179              	.LFB150:
  99:Src/main.c    **** 	}
 100:Src/main.c    **** 
 101:Src/main.c    **** }
 102:Src/main.c    **** 
 103:Src/main.c    **** /* Private function prototypes -----------------------------------------------*/
 104:Src/main.c    **** void SystemClock_Config(void);
 105:Src/main.c    **** 
 106:Src/main.c    **** 
ARM GAS  /tmp/ccac02yE.s 			page 6


 107:Src/main.c    **** int main(void)
 108:Src/main.c    **** {
 109:Src/main.c    **** 
 110:Src/main.c    ****   HAL_Init();
 111:Src/main.c    ****   /* Configure the system clock */
 112:Src/main.c    ****   SystemClock_Config();
 113:Src/main.c    **** 
 114:Src/main.c    ****   kernel_init();
 115:Src/main.c    **** 
 116:Src/main.c    ****   /* Initialize all configured peripherals */
 117:Src/main.c    ****   MX_GPIO_Init();
 118:Src/main.c    ****   MX_USART1_UART_Init();
 119:Src/main.c    **** 
 120:Src/main.c    ****   thread_create(t1_task, NULL, &t1);
 121:Src/main.c    ****   thread_create(t2_task, NULL, &t2);
 122:Src/main.c    ****   thread_create(t3_task, NULL, &t3);
 123:Src/main.c    ****   thread_create(t4_task, NULL, &t4);
 124:Src/main.c    **** 
 125:Src/main.c    ****   kernel_start();
 126:Src/main.c    **** }
 127:Src/main.c    **** 
 128:Src/main.c    **** /** System Clock Configuration
 129:Src/main.c    **** */
 130:Src/main.c    **** void SystemClock_Config(void)
 131:Src/main.c    **** {
 132:Src/main.c    **** 
 133:Src/main.c    ****   RCC_OscInitTypeDef RCC_OscInitStruct;
 134:Src/main.c    ****   RCC_ClkInitTypeDef RCC_ClkInitStruct;
 135:Src/main.c    ****   RCC_PeriphCLKInitTypeDef PeriphClkInit;
 136:Src/main.c    **** 
 137:Src/main.c    ****     /**Initializes the CPU, AHB and APB busses clocks 
 138:Src/main.c    ****     */
 139:Src/main.c    ****   RCC_OscInitStruct.OscillatorType = RCC_OSCILLATORTYPE_HSI;
 140:Src/main.c    ****   RCC_OscInitStruct.HSIState = RCC_HSI_ON;
 141:Src/main.c    ****   RCC_OscInitStruct.HSICalibrationValue = 16;
 142:Src/main.c    ****   RCC_OscInitStruct.PLL.PLLState = RCC_PLL_ON;
 143:Src/main.c    ****   RCC_OscInitStruct.PLL.PLLSource = RCC_PLLSOURCE_HSI;
 144:Src/main.c    ****   RCC_OscInitStruct.PLL.PLLMUL = RCC_PLL_MUL8;
 145:Src/main.c    ****   if (HAL_RCC_OscConfig(&RCC_OscInitStruct) != HAL_OK)
 146:Src/main.c    ****   {
 147:Src/main.c    ****     _Error_Handler(__FILE__, __LINE__);
 148:Src/main.c    ****   }
 149:Src/main.c    **** 
 150:Src/main.c    ****     /**Initializes the CPU, AHB and APB busses clocks 
 151:Src/main.c    ****     */
 152:Src/main.c    ****   RCC_ClkInitStruct.ClockType = RCC_CLOCKTYPE_HCLK|RCC_CLOCKTYPE_SYSCLK
 153:Src/main.c    ****                               |RCC_CLOCKTYPE_PCLK1|RCC_CLOCKTYPE_PCLK2;
 154:Src/main.c    ****   RCC_ClkInitStruct.SYSCLKSource = RCC_SYSCLKSOURCE_PLLCLK;
 155:Src/main.c    ****   RCC_ClkInitStruct.AHBCLKDivider = RCC_SYSCLK_DIV1;
 156:Src/main.c    ****   RCC_ClkInitStruct.APB1CLKDivider = RCC_HCLK_DIV1;
 157:Src/main.c    ****   RCC_ClkInitStruct.APB2CLKDivider = RCC_HCLK_DIV1;
 158:Src/main.c    **** 
 159:Src/main.c    ****   if (HAL_RCC_ClockConfig(&RCC_ClkInitStruct, FLASH_LATENCY_1) != HAL_OK)
 160:Src/main.c    ****   {
 161:Src/main.c    ****     _Error_Handler(__FILE__, __LINE__);
 162:Src/main.c    ****   }
 163:Src/main.c    **** 
ARM GAS  /tmp/ccac02yE.s 			page 7


 164:Src/main.c    ****   PeriphClkInit.PeriphClockSelection = RCC_PERIPHCLK_USART1;
 165:Src/main.c    ****   PeriphClkInit.Usart1ClockSelection = RCC_USART1CLKSOURCE_PCLK1;
 166:Src/main.c    ****   if (HAL_RCCEx_PeriphCLKConfig(&PeriphClkInit) != HAL_OK)
 167:Src/main.c    ****   {
 168:Src/main.c    ****     _Error_Handler(__FILE__, __LINE__);
 169:Src/main.c    ****   }
 170:Src/main.c    **** 
 171:Src/main.c    ****     /**Configure the Systick interrupt time 
 172:Src/main.c    ****     */
 173:Src/main.c    ****   HAL_SYSTICK_Config(HAL_RCC_GetHCLKFreq()/1000);
 174:Src/main.c    **** 
 175:Src/main.c    ****     /**Configure the Systick 
 176:Src/main.c    ****     */
 177:Src/main.c    ****   HAL_SYSTICK_CLKSourceConfig(SYSTICK_CLKSOURCE_HCLK);
 178:Src/main.c    **** 
 179:Src/main.c    ****   /* SysTick_IRQn interrupt configuration */
 180:Src/main.c    ****   HAL_NVIC_SetPriority(SysTick_IRQn, 0, 0);
 181:Src/main.c    **** }
 182:Src/main.c    **** 
 183:Src/main.c    **** /* USER CODE BEGIN 4 */
 184:Src/main.c    **** 
 185:Src/main.c    **** /* USER CODE END 4 */
 186:Src/main.c    **** 
 187:Src/main.c    **** /**
 188:Src/main.c    ****   * @brief  This function is executed in case of error occurrence.
 189:Src/main.c    ****   * @param  None
 190:Src/main.c    ****   * @retval None
 191:Src/main.c    ****   */
 192:Src/main.c    **** void _Error_Handler(char * file, int line)
 193:Src/main.c    **** {
 180              		.loc 1 193 0
 181              		.cfi_startproc
 182              		@ Volatile: function does not return.
 183              		@ args = 0, pretend = 0, frame = 0
 184              		@ frame_needed = 0, uses_anonymous_args = 0
 185              		@ link register save eliminated.
 186              	.LVL16:
 187              	.L22:
 188 0000 FEE7     		b	.L22
 189              		.cfi_endproc
 190              	.LFE150:
 192              		.section	.text.SystemClock_Config,"ax",%progbits
 193              		.align	1
 194              		.global	SystemClock_Config
 195              		.syntax unified
 196              		.thumb
 197              		.thumb_func
 198              		.fpu fpv4-sp-d16
 200              	SystemClock_Config:
 201              	.LFB149:
 131:Src/main.c    **** 
 202              		.loc 1 131 0
 203              		.cfi_startproc
 204              		@ args = 0, pretend = 0, frame = 88
 205              		@ frame_needed = 0, uses_anonymous_args = 0
 131:Src/main.c    **** 
 206              		.loc 1 131 0
ARM GAS  /tmp/ccac02yE.s 			page 8


 207 0000 00B5     		push	{lr}
 208              	.LCFI4:
 209              		.cfi_def_cfa_offset 4
 210              		.cfi_offset 14, -4
 211 0002 97B0     		sub	sp, sp, #92
 212              	.LCFI5:
 213              		.cfi_def_cfa_offset 96
 139:Src/main.c    ****   RCC_OscInitStruct.HSIState = RCC_HSI_ON;
 214              		.loc 1 139 0
 215 0004 0223     		movs	r3, #2
 216 0006 0C93     		str	r3, [sp, #48]
 140:Src/main.c    ****   RCC_OscInitStruct.HSICalibrationValue = 16;
 217              		.loc 1 140 0
 218 0008 0122     		movs	r2, #1
 219 000a 1092     		str	r2, [sp, #64]
 141:Src/main.c    ****   RCC_OscInitStruct.PLL.PLLState = RCC_PLL_ON;
 220              		.loc 1 141 0
 221 000c 1022     		movs	r2, #16
 222 000e 1192     		str	r2, [sp, #68]
 142:Src/main.c    ****   RCC_OscInitStruct.PLL.PLLSource = RCC_PLLSOURCE_HSI;
 223              		.loc 1 142 0
 224 0010 1393     		str	r3, [sp, #76]
 143:Src/main.c    ****   RCC_OscInitStruct.PLL.PLLMUL = RCC_PLL_MUL8;
 225              		.loc 1 143 0
 226 0012 0023     		movs	r3, #0
 227 0014 1493     		str	r3, [sp, #80]
 144:Src/main.c    ****   if (HAL_RCC_OscConfig(&RCC_OscInitStruct) != HAL_OK)
 228              		.loc 1 144 0
 229 0016 4FF4C013 		mov	r3, #1572864
 230 001a 1593     		str	r3, [sp, #84]
 145:Src/main.c    ****   {
 231              		.loc 1 145 0
 232 001c 0CA8     		add	r0, sp, #48
 233 001e FFF7FEFF 		bl	HAL_RCC_OscConfig
 234              	.LVL17:
 235 0022 40BB     		cbnz	r0, .L28
 152:Src/main.c    ****                               |RCC_CLOCKTYPE_PCLK1|RCC_CLOCKTYPE_PCLK2;
 236              		.loc 1 152 0
 237 0024 0F23     		movs	r3, #15
 238 0026 0793     		str	r3, [sp, #28]
 154:Src/main.c    ****   RCC_ClkInitStruct.AHBCLKDivider = RCC_SYSCLK_DIV1;
 239              		.loc 1 154 0
 240 0028 0223     		movs	r3, #2
 241 002a 0893     		str	r3, [sp, #32]
 155:Src/main.c    ****   RCC_ClkInitStruct.APB1CLKDivider = RCC_HCLK_DIV1;
 242              		.loc 1 155 0
 243 002c 0023     		movs	r3, #0
 244 002e 0993     		str	r3, [sp, #36]
 156:Src/main.c    ****   RCC_ClkInitStruct.APB2CLKDivider = RCC_HCLK_DIV1;
 245              		.loc 1 156 0
 246 0030 0A93     		str	r3, [sp, #40]
 157:Src/main.c    **** 
 247              		.loc 1 157 0
 248 0032 0B93     		str	r3, [sp, #44]
 159:Src/main.c    ****   {
 249              		.loc 1 159 0
 250 0034 0121     		movs	r1, #1
ARM GAS  /tmp/ccac02yE.s 			page 9


 251 0036 07A8     		add	r0, sp, #28
 252 0038 FFF7FEFF 		bl	HAL_RCC_ClockConfig
 253              	.LVL18:
 254 003c F8B9     		cbnz	r0, .L29
 164:Src/main.c    ****   PeriphClkInit.Usart1ClockSelection = RCC_USART1CLKSOURCE_PCLK1;
 255              		.loc 1 164 0
 256 003e 0123     		movs	r3, #1
 257 0040 0093     		str	r3, [sp]
 165:Src/main.c    ****   if (HAL_RCCEx_PeriphCLKConfig(&PeriphClkInit) != HAL_OK)
 258              		.loc 1 165 0
 259 0042 0023     		movs	r3, #0
 260 0044 0293     		str	r3, [sp, #8]
 166:Src/main.c    ****   {
 261              		.loc 1 166 0
 262 0046 6846     		mov	r0, sp
 263 0048 FFF7FEFF 		bl	HAL_RCCEx_PeriphCLKConfig
 264              	.LVL19:
 265 004c D8B9     		cbnz	r0, .L30
 173:Src/main.c    **** 
 266              		.loc 1 173 0
 267 004e FFF7FEFF 		bl	HAL_RCC_GetHCLKFreq
 268              	.LVL20:
 269 0052 0F4B     		ldr	r3, .L31
 270 0054 A3FB0030 		umull	r3, r0, r3, r0
 271 0058 8009     		lsrs	r0, r0, #6
 272 005a FFF7FEFF 		bl	HAL_SYSTICK_Config
 273              	.LVL21:
 177:Src/main.c    **** 
 274              		.loc 1 177 0
 275 005e 0420     		movs	r0, #4
 276 0060 FFF7FEFF 		bl	HAL_SYSTICK_CLKSourceConfig
 277              	.LVL22:
 180:Src/main.c    **** }
 278              		.loc 1 180 0
 279 0064 0022     		movs	r2, #0
 280 0066 1146     		mov	r1, r2
 281 0068 4FF0FF30 		mov	r0, #-1
 282 006c FFF7FEFF 		bl	HAL_NVIC_SetPriority
 283              	.LVL23:
 181:Src/main.c    **** 
 284              		.loc 1 181 0
 285 0070 17B0     		add	sp, sp, #92
 286              	.LCFI6:
 287              		.cfi_remember_state
 288              		.cfi_def_cfa_offset 4
 289              		@ sp needed
 290 0072 5DF804FB 		ldr	pc, [sp], #4
 291              	.L28:
 292              	.LCFI7:
 293              		.cfi_restore_state
 147:Src/main.c    ****   }
 294              		.loc 1 147 0
 295 0076 9321     		movs	r1, #147
 296 0078 0648     		ldr	r0, .L31+4
 297 007a FFF7FEFF 		bl	_Error_Handler
 298              	.LVL24:
 299              	.L29:
ARM GAS  /tmp/ccac02yE.s 			page 10


 161:Src/main.c    ****   }
 300              		.loc 1 161 0
 301 007e A121     		movs	r1, #161
 302 0080 0448     		ldr	r0, .L31+4
 303 0082 FFF7FEFF 		bl	_Error_Handler
 304              	.LVL25:
 305              	.L30:
 168:Src/main.c    ****   }
 306              		.loc 1 168 0
 307 0086 A821     		movs	r1, #168
 308 0088 0248     		ldr	r0, .L31+4
 309 008a FFF7FEFF 		bl	_Error_Handler
 310              	.LVL26:
 311              	.L32:
 312 008e 00BF     		.align	2
 313              	.L31:
 314 0090 D34D6210 		.word	274877907
 315 0094 00000000 		.word	.LC0
 316              		.cfi_endproc
 317              	.LFE149:
 319              		.section	.text.main,"ax",%progbits
 320              		.align	1
 321              		.global	main
 322              		.syntax unified
 323              		.thumb
 324              		.thumb_func
 325              		.fpu fpv4-sp-d16
 327              	main:
 328              	.LFB148:
 108:Src/main.c    **** 
 329              		.loc 1 108 0
 330              		.cfi_startproc
 331              		@ args = 0, pretend = 0, frame = 0
 332              		@ frame_needed = 0, uses_anonymous_args = 0
 333 0000 08B5     		push	{r3, lr}
 334              	.LCFI8:
 335              		.cfi_def_cfa_offset 8
 336              		.cfi_offset 3, -8
 337              		.cfi_offset 14, -4
 110:Src/main.c    ****   /* Configure the system clock */
 338              		.loc 1 110 0
 339 0002 FFF7FEFF 		bl	HAL_Init
 340              	.LVL27:
 112:Src/main.c    **** 
 341              		.loc 1 112 0
 342 0006 FFF7FEFF 		bl	SystemClock_Config
 343              	.LVL28:
 114:Src/main.c    **** 
 344              		.loc 1 114 0
 345 000a FFF7FEFF 		bl	kernel_init
 346              	.LVL29:
 117:Src/main.c    ****   MX_USART1_UART_Init();
 347              		.loc 1 117 0
 348 000e FFF7FEFF 		bl	MX_GPIO_Init
 349              	.LVL30:
 118:Src/main.c    **** 
 350              		.loc 1 118 0
ARM GAS  /tmp/ccac02yE.s 			page 11


 351 0012 FFF7FEFF 		bl	MX_USART1_UART_Init
 352              	.LVL31:
 120:Src/main.c    ****   thread_create(t2_task, NULL, &t2);
 353              		.loc 1 120 0
 354 0016 0C4A     		ldr	r2, .L35
 355 0018 0021     		movs	r1, #0
 356 001a 0C48     		ldr	r0, .L35+4
 357 001c FFF7FEFF 		bl	thread_create
 358              	.LVL32:
 121:Src/main.c    ****   thread_create(t3_task, NULL, &t3);
 359              		.loc 1 121 0
 360 0020 0B4A     		ldr	r2, .L35+8
 361 0022 0021     		movs	r1, #0
 362 0024 0B48     		ldr	r0, .L35+12
 363 0026 FFF7FEFF 		bl	thread_create
 364              	.LVL33:
 122:Src/main.c    ****   thread_create(t4_task, NULL, &t4);
 365              		.loc 1 122 0
 366 002a 0B4A     		ldr	r2, .L35+16
 367 002c 0021     		movs	r1, #0
 368 002e 0B48     		ldr	r0, .L35+20
 369 0030 FFF7FEFF 		bl	thread_create
 370              	.LVL34:
 123:Src/main.c    **** 
 371              		.loc 1 123 0
 372 0034 0A4A     		ldr	r2, .L35+24
 373 0036 0021     		movs	r1, #0
 374 0038 0A48     		ldr	r0, .L35+28
 375 003a FFF7FEFF 		bl	thread_create
 376              	.LVL35:
 125:Src/main.c    **** }
 377              		.loc 1 125 0
 378 003e FFF7FEFF 		bl	kernel_start
 379              	.LVL36:
 126:Src/main.c    **** 
 380              		.loc 1 126 0
 381 0042 0020     		movs	r0, #0
 382 0044 08BD     		pop	{r3, pc}
 383              	.L36:
 384 0046 00BF     		.align	2
 385              	.L35:
 386 0048 00000000 		.word	.LANCHOR0
 387 004c 00000000 		.word	t1_task
 388 0050 00000000 		.word	.LANCHOR1
 389 0054 00000000 		.word	t2_task
 390 0058 00000000 		.word	.LANCHOR2
 391 005c 00000000 		.word	t3_task
 392 0060 00000000 		.word	.LANCHOR3
 393 0064 00000000 		.word	t4_task
 394              		.cfi_endproc
 395              	.LFE148:
 397              		.global	t4
 398              		.global	t3
 399              		.global	t2
 400              		.global	t1
 401              		.section	.bss.stack_t1,"aw",%nobits
 402              		.align	2
ARM GAS  /tmp/ccac02yE.s 			page 12


 405              	stack_t1:
 406 0000 00000000 		.space	512
 406      00000000 
 406      00000000 
 406      00000000 
 406      00000000 
 407              		.section	.bss.stack_t2,"aw",%nobits
 408              		.align	2
 411              	stack_t2:
 412 0000 00000000 		.space	512
 412      00000000 
 412      00000000 
 412      00000000 
 412      00000000 
 413              		.section	.bss.stack_t3,"aw",%nobits
 414              		.align	2
 417              	stack_t3:
 418 0000 00000000 		.space	512
 418      00000000 
 418      00000000 
 418      00000000 
 418      00000000 
 419              		.section	.bss.stack_t4,"aw",%nobits
 420              		.align	2
 423              	stack_t4:
 424 0000 00000000 		.space	512
 424      00000000 
 424      00000000 
 424      00000000 
 424      00000000 
 425              		.section	.data.t1,"aw",%progbits
 426              		.align	2
 427              		.set	.LANCHOR0,. + 0
 430              	t1:
 431 0000 00000000 		.space	4
 432 0004 00000000 		.word	stack_t1
 433 0008 00000000 		.space	4
 434 000c 0000     		.short	0
 435 000e 04       		.byte	4
 436 000f 00       		.byte	0
 437 0010 80000000 		.word	128
 438 0014 00000000 		.word	0
 439 0018 00000000 		.space	20
 439      00000000 
 439      00000000 
 439      00000000 
 439      00000000 
 440              		.section	.data.t2,"aw",%progbits
 441              		.align	2
 442              		.set	.LANCHOR1,. + 0
 445              	t2:
 446 0000 00000000 		.space	4
 447 0004 00000000 		.word	stack_t2
 448 0008 00000000 		.space	4
 449 000c 0000     		.short	0
 450 000e 04       		.byte	4
 451 000f 00       		.byte	0
ARM GAS  /tmp/ccac02yE.s 			page 13


 452 0010 80000000 		.word	128
 453 0014 00000000 		.word	0
 454 0018 00000000 		.space	20
 454      00000000 
 454      00000000 
 454      00000000 
 454      00000000 
 455              		.section	.data.t3,"aw",%progbits
 456              		.align	2
 457              		.set	.LANCHOR2,. + 0
 460              	t3:
 461 0000 00000000 		.space	4
 462 0004 00000000 		.word	stack_t3
 463 0008 00000000 		.space	4
 464 000c 0000     		.short	0
 465 000e 04       		.byte	4
 466 000f 00       		.byte	0
 467 0010 80000000 		.word	128
 468 0014 00000000 		.word	0
 469 0018 00000000 		.space	20
 469      00000000 
 469      00000000 
 469      00000000 
 469      00000000 
 470              		.section	.data.t4,"aw",%progbits
 471              		.align	2
 472              		.set	.LANCHOR3,. + 0
 475              	t4:
 476 0000 00000000 		.space	4
 477 0004 00000000 		.word	stack_t4
 478 0008 00000000 		.space	4
 479 000c 0000     		.short	0
 480 000e 04       		.byte	4
 481 000f 00       		.byte	0
 482 0010 80000000 		.word	128
 483 0014 00000000 		.word	0
 484 0018 00000000 		.space	20
 484      00000000 
 484      00000000 
 484      00000000 
 484      00000000 
 485              		.section	.rodata.SystemClock_Config.str1.4,"aMS",%progbits,1
 486              		.align	2
 487              	.LC0:
 488 0000 5372632F 		.ascii	"Src/main.c\000"
 488      6D61696E 
 488      2E6300
 489              		.text
 490              	.Letext0:
 491              		.file 2 "/home/venturus/gcc-arm-none-eabi-6-2017-q2-update/arm-none-eabi/include/machine/_default_
 492              		.file 3 "/home/venturus/gcc-arm-none-eabi-6-2017-q2-update/arm-none-eabi/include/sys/_stdint.h"
 493              		.file 4 "Drivers/CMSIS/Include/core_cm4.h"
 494              		.file 5 "Drivers/CMSIS/Device/ST/STM32F3xx/Include/system_stm32f3xx.h"
 495              		.file 6 "Drivers/CMSIS/Device/ST/STM32F3xx/Include/stm32f334x8.h"
 496              		.file 7 "/home/venturus/gcc-arm-none-eabi-6-2017-q2-update/arm-none-eabi/include/sys/lock.h"
 497              		.file 8 "/home/venturus/gcc-arm-none-eabi-6-2017-q2-update/arm-none-eabi/include/sys/_types.h"
 498              		.file 9 "/home/venturus/gcc-arm-none-eabi-6-2017-q2-update/lib/gcc/arm-none-eabi/6.3.1/include/std
ARM GAS  /tmp/ccac02yE.s 			page 14


 499              		.file 10 "/home/venturus/gcc-arm-none-eabi-6-2017-q2-update/arm-none-eabi/include/sys/reent.h"
 500              		.file 11 "Drivers/STM32F3xx_HAL_Driver/Inc/stm32f3xx_hal_def.h"
 501              		.file 12 "Drivers/STM32F3xx_HAL_Driver/Inc/stm32f3xx_hal_rcc.h"
 502              		.file 13 "Drivers/STM32F3xx_HAL_Driver/Inc/stm32f3xx_hal_rcc_ex.h"
 503              		.file 14 "Drivers/STM32F3xx_HAL_Driver/Inc/stm32f3xx_hal_dma.h"
 504              		.file 15 "Drivers/STM32F3xx_HAL_Driver/Inc/stm32f3xx_hal_uart.h"
 505              		.file 16 "Inc/usart.h"
 506              		.file 17 "../../../uLipeRtosPico/picokernel/inc/k_list.h"
 507              		.file 18 "../../../uLipeRtosPico/ulipe_rtos_pico.h"
 508              		.file 19 "../../../uLipeRtosPico/include/picokernel/k_thread.h"
 509              		.file 20 "Drivers/STM32F3xx_HAL_Driver/Inc/stm32f3xx_hal_cortex.h"
 510              		.file 21 "Drivers/STM32F3xx_HAL_Driver/Inc/stm32f3xx_hal.h"
 511              		.file 22 "../../../uLipeRtosPico/include/picokernel/k_kernel.h"
 512              		.file 23 "Inc/gpio.h"
 513              		.file 24 "Drivers/STM32F3xx_HAL_Driver/Inc/stm32f3xx_hal_gpio.h"
 514              		.file 25 "../../../uLipeRtosPico/include/picokernel/k_raw_timer.h"
ARM GAS  /tmp/ccac02yE.s 			page 15

